(dp1
S'output'
p2
S"<class 'sqlite3.OperationalError'> duplicate column name: minimum"
p3
sS'layer'
p4
S'C:\\Users\\Rishith Reddy\\Documents\\web2py\\applications\\MatrimonialProject\\models\\db.py'
p5
sS'code'
p6
S"# -*- coding: utf-8 -*-\n\n#########################################################################\n## This scaffolding model makes your app work on Google App Engine too\n## File is released under public domain and you can use without limitations\n#########################################################################\n\n## if SSL/HTTPS is properly configured and you want all HTTP requests to\n## be redirected to HTTPS, uncomment the line below:\n# request.requires_https()\n\nif not request.env.web2py_runtime_gae:\n    ## if NOT running on Google App Engine use SQLite or other DB\n    db = DAL('sqlite://storage.sqlite',pool_size=1,check_reserved=['all'])\nelse:\n    ## connect to Google BigTable (optional 'google:datastore://namespace')\n    db = DAL('google:datastore+ndb')\n    ## store sessions and tickets there\n    session.connect(request, response, db=db)\n    ## or store session in Memcache, Redis, etc.\n    ## from gluon.contrib.memdb import MEMDB\n    ## from google.appengine.api.memcache import Client\n    ## session.connect(request, response, db = MEMDB(Client()))\n\n## by default give a view/generic.extension to all actions from localhost\n## none otherwise. a pattern can be 'controller/function.extension'\nresponse.generic_patterns = ['*'] if request.is_local else []\n\n## (optional) optimize handling of static files\n# response.optimize_css = 'concat,minify,inline'\n# response.optimize_js = 'concat,minify,inline'\n## (optional) static assets folder versioning\n# response.static_version = '0.0.0'\n#########################################################################\n## Here is sample code if you need for\n## - email capabilities\n## - authentication (registration, login, logout, ... )\n## - authorization (role based authorization)\n## - services (xml, csv, json, xmlrpc, jsonrpc, amf, rss)\n## - old style crud actions\n## (more options discussed in gluon/tools.py)\n#########################################################################\n\nfrom gluon.tools import Auth, Service, PluginManager\n\nauth = Auth(db)\nauth.settings.extra_fields['auth_user']= [\n  Field('sex',IS_IN_SET(['Male','Female','Other'])),\n  Field('address', 'string'),\n  Field('city', 'string'),\n  Field('zip', 'string'),\n  Field('phone', 'string'),\n  Field('age'),\n  Field('salary'),\n  Field('Hobbies','text'),\n  Field('About Myself','text')]\n#db.auth.auth_user.city.requires = IS_NOT_EMPTY()\n#auth.settings.actions_disabled.append('register')\n\ndb.define_table('find', \n                Field('sex'),\n                Field('minimum age'),\n                Field('maximum age'),\n                Field('minimum salary'))\nservice = Service()\nplugins = PluginManager()\n\n## create all tables needed by auth if not custom tables\nauth.define_tables(username=False, signature=False)\n\n\n## configure email\nmail = auth.settings.mailer\nmail.settings.server = 'logging' if request.is_local else 'smtp.gmail.com:587'\nmail.settings.sender = 'you@gmail.com'\nmail.settings.login = 'username:password'\n\n## configure auth policy\nauth.settings.registration_requires_verification = False\nauth.settings.registration_requires_approval = False\nauth.settings.reset_password_requires_verification = True\n\n## if you need to use OpenID, Facebook, MySpace, Twitter, Linkedin, etc.\n## register with janrain.com, write your domain:api_key in private/janrain.key\nfrom gluon.contrib.login_methods.janrain_account import use_janrain\nuse_janrain(auth, filename='private/janrain.key')\n\n#########################################################################\n## Define your tables below (or better in another model file) for example\n##\n## >>> db.define_table('mytable',Field('myfield','string'))\n##\n## Fields can be 'string','text','password','integer','double','boolean'\n##       'date','time','datetime','blob','upload', 'reference TABLENAME'\n## There is an implicit 'id integer autoincrement' field\n## Consult manual for more options, validators, etc.\n##\n## More API examples for controllers:\n##\n## >>> db.mytable.insert(myfield='value')\n## >>> rows=db(db.mytable.myfield=='value').select(db.mytable.ALL)\n## >>> for row in rows: print row.id, row.myfield\n#########################################################################\ndb.define_table('users', Field('username', 'string'), Field('password', 'password'))\ndb.users.username.requires = IS_NOT_IN_DB(db.users, 'db.users.username')\n## after defining tables, uncomment below to enable auditing\n# auth.enable_record_versioning(db)\n"
p7
sS'snapshot'
p8
(dp9
S'exception'
p10
(dp11
S'__module__'
p12
S"'sqlite3'"
p13
sS'__getslice__'
p14
S"<method-wrapper '__getslice__' of OperationalError object>"
p15
sS'__str__'
p16
S"<method-wrapper '__str__' of OperationalError object>"
p17
sS'__reduce__'
p18
S'<built-in method __reduce__ of OperationalError object>'
p19
sS'__dict__'
p20
S'{}'
p21
sS'__sizeof__'
p22
S'<built-in method __sizeof__ of OperationalError object>'
p23
sS'__weakref__'
p24
S'None'
p25
sS'__init__'
p26
S"<method-wrapper '__init__' of OperationalError object>"
p27
sS'__setattr__'
p28
S"<method-wrapper '__setattr__' of OperationalError object>"
p29
sS'__reduce_ex__'
p30
S'<built-in method __reduce_ex__ of OperationalError object>'
p31
sS'__new__'
p32
S'<built-in method __new__ of type object>'
p33
sS'__format__'
p34
S'<built-in method __format__ of OperationalError object>'
p35
sS'__class__'
p36
S"<class 'sqlite3.OperationalError'>"
p37
sS'__doc__'
p38
S'None'
p39
sS'__getitem__'
p40
S"<method-wrapper '__getitem__' of OperationalError object>"
p41
sS'__setstate__'
p42
S'<built-in method __setstate__ of OperationalError object>'
p43
sS'__getattribute__'
p44
S"<method-wrapper '__getattribute__' of OperationalError object>"
p45
sS'args'
p46
S"('duplicate column name: minimum',)"
p47
sS'__subclasshook__'
p48
S'<built-in method __subclasshook__ of type object>'
p49
sS'__unicode__'
p50
S'<built-in method __unicode__ of OperationalError object>'
p51
sS'__delattr__'
p52
S"<method-wrapper '__delattr__' of OperationalError object>"
p53
sS'__repr__'
p54
S"<method-wrapper '__repr__' of OperationalError object>"
p55
sS'__hash__'
p56
S"<method-wrapper '__hash__' of OperationalError object>"
p57
ssS'evalue'
p58
S'duplicate column name: minimum'
p59
sS'request'
p60
cgluon.html
XML_unpickle
p61
(S's\x1be\x00\x00<div><table><tr><td style="font-weight:bold;vertical-align:top;">ajax</td><td style="vertical-align:top;">:</td><td><div>False</div></td></tr><tr><td style="font-weight:bold;vertical-align:top;">application</td><td style="vertical-align:top;">:</td><td><div>MatrimonialProject</div></td></tr><tr><td style="font-weight:bold;vertical-align:top;">args</td><td style="vertical-align:top;">:</td><td><div><table></table></div></td></tr><tr><td style="font-weight:bold;vertical-align:top;">cid</td><td style="vertical-align:top;">:</td><td><div>None</div></td></tr><tr><td style="font-weight:bold;vertical-align:top;">client</td><td style="vertical-align:top;">:</td><td><div>127.0.0.1</div></td></tr><tr><td style="font-weight:bold;vertical-align:top;">controller</td><td style="vertical-align:top;">:</td><td><div>default</div></td></tr><tr><td style="font-weight:bold;vertical-align:top;">cookies</td><td style="vertical-align:top;">:</td><td><div><table><tr><td style="font-weight:bold;vertical-align:top;">session_id_admin</td><td style="vertical-align:top;">:</td><td><div>127.0.0.1-b457d6fe-57f7-4308-9fa7-2b9f3760a313<table><tr><td style="font-weight:bold;vertical-align:top;">comment</td><td style="vertical-align:top;">:</td><td><div></div></td></tr><tr><td style="font-weight:bold;vertical-align:top;">domain</td><td style="vertical-align:top;">:</td><td><div></div></td></tr><tr><td style="font-weight:bold;vertical-align:top;">expires</td><td style="vertical-align:top;">:</td><td><div></div></td></tr><tr><td style="font-weight:bold;vertical-align:top;">httponly</td><td style="vertical-align:top;">:</td><td><div></div></td></tr><tr><td style="font-weight:bold;vertical-align:top;">max-age</td><td style="vertical-align:top;">:</td><td><div></div></td></tr><tr><td style="font-weight:bold;vertical-align:top;">path</td><td style="vertical-align:top;">:</td><td><div></div></td></tr><tr><td style="font-weight:bold;vertical-align:top;">secure</td><td style="vertical-align:top;">:</td><td><div></div></td></tr><tr><td style="font-weight:bold;vertical-align:top;">version</td><td style="vertical-align:top;">:</td><td><div></div></td></tr></table></div></td></tr><tr><td style="font-weight:bold;vertical-align:top;">session_id_image_journal</td><td style="vertical-align:top;">:</td><td><div>127.0.0.1-aca2a5e7-bbad-45a8-a4c3-0117c08d49e4<table><tr><td style="font-weight:bold;vertical-align:top;">comment</td><td style="vertical-align:top;">:</td><td><div></div></td></tr><tr><td style="font-weight:bold;vertical-align:top;">domain</td><td style="vertical-align:top;">:</td><td><div></div></td></tr><tr><td style="font-weight:bold;vertical-align:top;">expires</td><td style="vertical-align:top;">:</td><td><div></div></td></tr><tr><td style="font-weight:bold;vertical-align:top;">httponly</td><td style="vertical-align:top;">:</td><td><div></div></td></tr><tr><td style="font-weight:bold;vertical-align:top;">max-age</td><td style="vertical-align:top;">:</td><td><div></div></td></tr><tr><td style="font-weight:bold;vertical-align:top;">path</td><td style="vertical-align:top;">:</td><td><div></div></td></tr><tr><td style="font-weight:bold;vertical-align:top;">secure</td><td style="vertical-align:top;">:</td><td><div></div></td></tr><tr><td style="font-weight:bold;vertical-align:top;">version</td><td style="vertical-align:top;">:</td><td><div></div></td></tr></table></div></td></tr><tr><td style="font-weight:bold;vertical-align:top;">session_id_matrimonialproject</td><td style="vertical-align:top;">:</td><td><div>127.0.0.1-4a935539-bdf7-47ad-a124-af5b31199e36<table><tr><td style="font-weight:bold;vertical-align:top;">comment</td><td style="vertical-align:top;">:</td><td><div></div></td></tr><tr><td style="font-weight:bold;vertical-align:top;">domain</td><td style="vertical-align:top;">:</td><td><div></div></td></tr><tr><td style="font-weight:bold;vertical-align:top;">expires</td><td style="vertical-align:top;">:</td><td><div></div></td></tr><tr><td style="font-weight:bold;vertical-align:top;">httponly</td><td style="vertical-align:top;">:</td><td><div></div></td></tr><tr><td style="font-weight:bold;vertical-align:top;">max-age</td><td style="vertical-align:top;">:</td><td><div></div></td></tr><tr><td style="font-weight:bold;vertical-align:top;">path</td><td style="vertical-align:top;">:</td><td><div></div></td></tr><tr><td style="font-weight:bold;vertical-align:top;">secure</td><td style="vertical-align:top;">:</td><td><div></div></td></tr><tr><td style="font-weight:bold;vertical-align:top;">version</td><td style="vertical-align:top;">:</td><td><div></div></td></tr></table></div></td></tr><tr><td style="font-weight:bold;vertical-align:top;">session_id_welcome</td><td style="vertical-align:top;">:</td><td><div>127.0.0.1-289815a5-3138-4f03-a7d9-dac8a670f1fc<table><tr><td style="font-weight:bold;vertical-align:top;">comment</td><td style="vertical-align:top;">:</td><td><div></div></td></tr><tr><td style="font-weight:bold;vertical-align:top;">domain</td><td style="vertical-align:top;">:</td><td><div></div></td></tr><tr><td style="font-weight:bold;vertical-align:top;">expires</td><td style="vertical-align:top;">:</td><td><div></div></td></tr><tr><td style="font-weight:bold;vertical-align:top;">httponly</td><td style="vertical-align:top;">:</td><td><div></div></td></tr><tr><td style="font-weight:bold;vertical-align:top;">max-age</td><td style="vertical-align:top;">:</td><td><div></div></td></tr><tr><td style="font-weight:bold;vertical-align:top;">path</td><td style="vertical-align:top;">:</td><td><div></div></td></tr><tr><td style="font-weight:bold;vertical-align:top;">secure</td><td style="vertical-align:top;">:</td><td><div></div></td></tr><tr><td style="font-weight:bold;vertical-align:top;">version</td><td style="vertical-align:top;">:</td><td><div></div></td></tr></table></div></td></tr></table></div></td></tr><tr><td style="font-weight:bold;vertical-align:top;">env</td><td style="vertical-align:top;">:</td><td><div><table><tr><td style="font-weight:bold;vertical-align:top;">HTTP_ACCEPT</td><td style="vertical-align:top;">:</td><td><div>text/html,application/xhtml+xml,application/xml;q=0.9,image/webp,*/*;q=0.8</div></td></tr><tr><td style="font-weight:bold;vertical-align:top;">HTTP_ACCEPT_ENCODING</td><td style="vertical-align:top;">:</td><td><div>gzip, deflate, sdch</div></td></tr><tr><td style="font-weight:bold;vertical-align:top;">HTTP_ACCEPT_LANGUAGE</td><td style="vertical-align:top;">:</td><td><div>en-US,en;q=0.8</div></td></tr><tr><td style="font-weight:bold;vertical-align:top;">HTTP_CACHE_CONTROL</td><td style="vertical-align:top;">:</td><td><div>max-age=0</div></td></tr><tr><td style="font-weight:bold;vertical-align:top;">HTTP_CONNECTION</td><td style="vertical-align:top;">:</td><td><div>keep-alive</div></td></tr><tr><td style="font-weight:bold;vertical-align:top;">HTTP_COOKIE</td><td style="vertical-align:top;">:</td><td><div>session_id_welcome=127.0.0.1-289815a5-3138-4f03-a7d9-dac8a670f1fc; session_id_matrimonialproject=127.0.0.1-4a935539-bdf7-47ad-a124-af5b31199e36; session_id_image_journal=127.0.0.1-aca2a5e7-bbad-45a8-a4c3-0117c08d49e4; session_id_admin=127.0.0.1-b457d6fe-57f7-4308-9fa7-2b9f3760a313</div></td></tr><tr><td style="font-weight:bold;vertical-align:top;">HTTP_HOST</td><td style="vertical-align:top;">:</td><td><div>127.0.0.1:8000</div></td></tr><tr><td style="font-weight:bold;vertical-align:top;">HTTP_USER_AGENT</td><td style="vertical-align:top;">:</td><td><div>Mozilla/5.0 (Windows NT 6.3; WOW64) AppleWebKit/537.36 (KHTML, like Gecko) Chrome/41.0.2272.118 Safari/537.36</div></td></tr><tr><td style="font-weight:bold;vertical-align:top;">PATH_INFO</td><td style="vertical-align:top;">:</td><td><div>/MatrimonialProject/default/</div></td></tr><tr><td style="font-weight:bold;vertical-align:top;">QUERY_STRING</td><td style="vertical-align:top;">:</td><td><div></div></td></tr><tr><td style="font-weight:bold;vertical-align:top;">REMOTE_ADDR</td><td style="vertical-align:top;">:</td><td><div>127.0.0.1</div></td></tr><tr><td style="font-weight:bold;vertical-align:top;">REMOTE_PORT</td><td style="vertical-align:top;">:</td><td><div>1920</div></td></tr><tr><td style="font-weight:bold;vertical-align:top;">REQUEST_METHOD</td><td style="vertical-align:top;">:</td><td><div>GET</div></td></tr><tr><td style="font-weight:bold;vertical-align:top;">SCRIPT_NAME</td><td style="vertical-align:top;">:</td><td><div></div></td></tr><tr><td style="font-weight:bold;vertical-align:top;">SERVER_NAME</td><td style="vertical-align:top;">:</td><td><div>Infinity</div></td></tr><tr><td style="font-weight:bold;vertical-align:top;">SERVER_PORT</td><td style="vertical-align:top;">:</td><td><div>8000</div></td></tr><tr><td style="font-weight:bold;vertical-align:top;">SERVER_PROTOCOL</td><td style="vertical-align:top;">:</td><td><div>HTTP/1.1</div></td></tr><tr><td style="font-weight:bold;vertical-align:top;">SERVER_SOFTWARE</td><td style="vertical-align:top;">:</td><td><div>Rocket 1.2.6</div></td></tr><tr><td style="font-weight:bold;vertical-align:top;">app_folders</td><td style="vertical-align:top;">:</td><td><div>set([&#x27;C:\\\\Users\\\\Rishith Reddy\\\\Documents\\\\web2py\\\\applications\\\\MatrimonialProject\\\\&#x27;, &#x27;C:\\\\Users\\\\Rishith Reddy\\\\Documents\\\\web2py\\\\applications\\\\welcome\\\\&#x27;, &#x27;C:\\\\Users\\\\Rishith Reddy\\\\Documents\\\\web2py\\\\applications\\\\IMAGE_JOURNAL\\\\&#x27;, &#x27;C:\\\\Users\\\\Rishith Reddy\\\\Documents\\\\web2py\\\\applications\\\\admin\\\\&#x27;, &#x27;C:\\\\Users\\\\Rishith Reddy\\\\Documents\\\\web2py\\\\applications\\\\examples\\\\&#x27;])</div></td></tr><tr><td style="font-weight:bold;vertical-align:top;">applications_parent</td><td style="vertical-align:top;">:</td><td><div>C:\\Users\\Rishith Reddy\\Documents\\web2py</div></td></tr><tr><td style="font-weight:bold;vertical-align:top;">cmd_args</td><td style="vertical-align:top;">:</td><td><div><table></table></div></td></tr><tr><td style="font-weight:bold;vertical-align:top;">cmd_options</td><td style="vertical-align:top;">:</td><td><div>&lt;Values at 0x2a63da0: {&#x27;verbose&#x27;: False, &#x27;ip&#x27;: &#x27;127.0.0.1&#x27;, &#x27;debuglevel&#x27;: 30, &#x27;with_scheduler&#x27;: False, &#x27;ips&#x27;: [&#x27;fe80::9c54:224a:e725:5635%8&#x27;, &#x27;169.254.86.53&#x27;], &#x27;shutdown_timeout&#x27;: 5, &#x27;taskbar&#x27;: False, &#x27;with_coverage&#x27;: False, &#x27;scheduler_groups&#x27;: None, &#x27;port&#x27;: 8000, &#x27;maxthreads&#x27;: None, &#x27;softcron&#x27;: False, &#x27;server_name&#x27;: &#x27;Infinity&#x27;, &#x27;bpython&#x27;: False, &#x27;nogui&#x27;: False, &#x27;pid_filename&#x27;: &#x27;httpserver.pid&#x27;, &#x27;extcron&#x27;: False, &#x27;runcron&#x27;: False, &#x27;run_system_tests&#x27;: False, &#x27;test&#x27;: None, &#x27;folder&#x27;: &#x27;C:\\\\Users\\\\Rishith Reddy\\\\Documents\\\\web2py&#x27;, &#x27;config&#x27;: &#x27;&#x27;, &#x27;minthreads&#x27;: None, &#x27;shell&#x27;: None, &#x27;run&#x27;: &#x27;&#x27;, &#x27;log_filename&#x27;: &#x27;httpserver.log&#x27;, &#x27;profiler_dir&#x27;: None, &#x27;args&#x27;: [&#x27;&#x27;], &#x27;socket_timeout&#x27;: 5, &#x27;ssl_ca_certificate&#x27;: None, &#x27;scheduler&#x27;: None, &#x27;interfaces&#x27;: None, &#x27;ssl_private_key&#x27;: &#x27;&#x27;, &#x27;gae&#x27;: None, &#x27;password&#x27;: &#x27;&lt;ask&gt;&#x27;, &#x27;request_queue_size&#x27;: 5, &#x27;ssl_certificate&#x27;: &#x27;&#x27;, &#x27;cronjob&#x27;: False, &#x27;numthreads&#x27;: None, &#x27;quiet&#x27;: False, &#x27;import_models&#x27;: False, &#x27;timeout&#x27;: 10, &#x27;plain&#x27;: False, &#x27;nobanner&#x27;: False}&gt;</div></td></tr><tr><td style="font-weight:bold;vertical-align:top;">db_sessions</td><td style="vertical-align:top;">:</td><td><div>set([])</div></td></tr><tr><td style="font-weight:bold;vertical-align:top;">debugging</td><td style="vertical-align:top;">:</td><td><div>True</div></td></tr><tr><td style="font-weight:bold;vertical-align:top;">gluon_parent</td><td style="vertical-align:top;">:</td><td><div>C:\\Users\\Rishith Reddy\\Documents\\web2py</div></td></tr><tr><td style="font-weight:bold;vertical-align:top;">http_accept</td><td style="vertical-align:top;">:</td><td><div>text/html,application/xhtml+xml,application/xml;q=0.9,image/webp,*/*;q=0.8</div></td></tr><tr><td style="font-weight:bold;vertical-align:top;">http_accept_encoding</td><td style="vertical-align:top;">:</td><td><div>gzip, deflate, sdch</div></td></tr><tr><td style="font-weight:bold;vertical-align:top;">http_accept_language</td><td style="vertical-align:top;">:</td><td><div>en-US,en;q=0.8</div></td></tr><tr><td style="font-weight:bold;vertical-align:top;">http_cache_control</td><td style="vertical-align:top;">:</td><td><div>max-age=0</div></td></tr><tr><td style="font-weight:bold;vertical-align:top;">http_connection</td><td style="vertical-align:top;">:</td><td><div>keep-alive</div></td></tr><tr><td style="font-weight:bold;vertical-align:top;">http_cookie</td><td style="vertical-align:top;">:</td><td><div>session_id_welcome=127.0.0.1-289815a5-3138-4f03-a7d9-dac8a670f1fc; session_id_matrimonialproject=127.0.0.1-4a935539-bdf7-47ad-a124-af5b31199e36; session_id_image_journal=127.0.0.1-aca2a5e7-bbad-45a8-a4c3-0117c08d49e4; session_id_admin=127.0.0.1-b457d6fe-57f7-4308-9fa7-2b9f3760a313</div></td></tr><tr><td style="font-weight:bold;vertical-align:top;">http_host</td><td style="vertical-align:top;">:</td><td><div>127.0.0.1:8000</div></td></tr><tr><td style="font-weight:bold;vertical-align:top;">http_user_agent</td><td style="vertical-align:top;">:</td><td><div>Mozilla/5.0 (Windows NT 6.3; WOW64) AppleWebKit/537.36 (KHTML, like Gecko) Chrome/41.0.2272.118 Safari/537.36</div></td></tr><tr><td style="font-weight:bold;vertical-align:top;">is_jython</td><td style="vertical-align:top;">:</td><td><div>False</div></td></tr><tr><td style="font-weight:bold;vertical-align:top;">is_pypy</td><td style="vertical-align:top;">:</td><td><div>False</div></td></tr><tr><td style="font-weight:bold;vertical-align:top;">is_source</td><td style="vertical-align:top;">:</td><td><div>True</div></td></tr><tr><td style="font-weight:bold;vertical-align:top;">local_hosts</td><td style="vertical-align:top;">:</td><td><div><table><tr><td><div>Infinity</div></td></tr><tr><td><div>2001:0:5ef5:79fd:20ac:140f:f5fd:c4ac</div></td></tr><tr><td><div>fe80::9c54:224a:e725:5635%8</div></td></tr><tr><td><div>::ffff:127.0.0.1</div></td></tr><tr><td><div>::1</div></td></tr><tr><td><div>fe80::20ac:140f:f5fd:c4ac%7</div></td></tr><tr><td><div>10.2.59.83</div></td></tr><tr><td><div>Infinity.iiit.ac.in</div></td></tr><tr><td><div>127.0.0.1</div></td></tr></table></div></td></tr><tr><td style="font-weight:bold;vertical-align:top;">path_info</td><td style="vertical-align:top;">:</td><td><div>/MatrimonialProject/default/</div></td></tr><tr><td style="font-weight:bold;vertical-align:top;">query_string</td><td style="vertical-align:top;">:</td><td><div></div></td></tr><tr><td style="font-weight:bold;vertical-align:top;">remote_addr</td><td style="vertical-align:top;">:</td><td><div>127.0.0.1</div></td></tr><tr><td style="font-weight:bold;vertical-align:top;">remote_port</td><td style="vertical-align:top;">:</td><td><div>1920</div></td></tr><tr><td style="font-weight:bold;vertical-align:top;">request_method</td><td style="vertical-align:top;">:</td><td><div>GET</div></td></tr><tr><td style="font-weight:bold;vertical-align:top;">request_uri</td><td style="vertical-align:top;">:</td><td><div>/MatrimonialProject/default/</div></td></tr><tr><td style="font-weight:bold;vertical-align:top;">script_name</td><td style="vertical-align:top;">:</td><td><div></div></td></tr><tr><td style="font-weight:bold;vertical-align:top;">server_name</td><td style="vertical-align:top;">:</td><td><div>Infinity</div></td></tr><tr><td style="font-weight:bold;vertical-align:top;">server_port</td><td style="vertical-align:top;">:</td><td><div>8000</div></td></tr><tr><td style="font-weight:bold;vertical-align:top;">server_protocol</td><td style="vertical-align:top;">:</td><td><div>HTTP/1.1</div></td></tr><tr><td style="font-weight:bold;vertical-align:top;">server_software</td><td style="vertical-align:top;">:</td><td><div>Rocket 1.2.6</div></td></tr><tr><td style="font-weight:bold;vertical-align:top;">web2py_path</td><td style="vertical-align:top;">:</td><td><div>C:\\Users\\Rishith Reddy\\Documents\\web2py</div></td></tr><tr><td style="font-weight:bold;vertical-align:top;">web2py_version</td><td style="vertical-align:top;">:</td><td><div>2.9.12-stable+timestamp.2015.02.15.23.04.25</div></td></tr><tr><td style="font-weight:bold;vertical-align:top;">wsgi.errors</td><td style="vertical-align:top;">:</td><td><div>&lt;open file &#x27;&lt;stderr&gt;&#x27;, mode &#x27;w&#x27; at 0x01B7D0D0&gt;</div></td></tr><tr><td style="font-weight:bold;vertical-align:top;">wsgi.file_wrapper</td><td style="vertical-align:top;">:</td><td><div>&lt;class wsgiref.util.FileWrapper at 0x02DFC6F8&gt;</div></td></tr><tr><td style="font-weight:bold;vertical-align:top;">wsgi.input</td><td style="vertical-align:top;">:</td><td><div>&lt;socket._fileobject object at 0x0747E2B0&gt;</div></td></tr><tr><td style="font-weight:bold;vertical-align:top;">wsgi.multiprocess</td><td style="vertical-align:top;">:</td><td><div>False</div></td></tr><tr><td style="font-weight:bold;vertical-align:top;">wsgi.multithread</td><td style="vertical-align:top;">:</td><td><div>True</div></td></tr><tr><td style="font-weight:bold;vertical-align:top;">wsgi.run_once</td><td style="vertical-align:top;">:</td><td><div>False</div></td></tr><tr><td style="font-weight:bold;vertical-align:top;">wsgi.url_scheme</td><td style="vertical-align:top;">:</td><td><div>http</div></td></tr><tr><td style="font-weight:bold;vertical-align:top;">wsgi.version</td><td style="vertical-align:top;">:</td><td><div><table><tr><td><div>1</div></td></tr><tr><td><div>0</div></td></tr></table></div></td></tr><tr><td style="font-weight:bold;vertical-align:top;">wsgi_errors</td><td style="vertical-align:top;">:</td><td><div>&lt;open file &#x27;&lt;stderr&gt;&#x27;, mode &#x27;w&#x27; at 0x01B7D0D0&gt;</div></td></tr><tr><td style="font-weight:bold;vertical-align:top;">wsgi_file_wrapper</td><td style="vertical-align:top;">:</td><td><div>&lt;class wsgiref.util.FileWrapper at 0x02DFC6F8&gt;</div></td></tr><tr><td style="font-weight:bold;vertical-align:top;">wsgi_input</td><td style="vertical-align:top;">:</td><td><div>&lt;socket._fileobject object at 0x0747E2B0&gt;</div></td></tr><tr><td style="font-weight:bold;vertical-align:top;">wsgi_multiprocess</td><td style="vertical-align:top;">:</td><td><div>False</div></td></tr><tr><td style="font-weight:bold;vertical-align:top;">wsgi_multithread</td><td style="vertical-align:top;">:</td><td><div>True</div></td></tr><tr><td style="font-weight:bold;vertical-align:top;">wsgi_run_once</td><td style="vertical-align:top;">:</td><td><div>False</div></td></tr><tr><td style="font-weight:bold;vertical-align:top;">wsgi_url_scheme</td><td style="vertical-align:top;">:</td><td><div>http</div></td></tr><tr><td style="font-weight:bold;vertical-align:top;">wsgi_version</td><td style="vertical-align:top;">:</td><td><div><table><tr><td><div>1</div></td></tr><tr><td><div>0</div></td></tr></table></div></td></tr></table></div></td></tr><tr><td style="font-weight:bold;vertical-align:top;">extension</td><td style="vertical-align:top;">:</td><td><div>html</div></td></tr><tr><td style="font-weight:bold;vertical-align:top;">folder</td><td style="vertical-align:top;">:</td><td><div>C:\\Users\\Rishith Reddy\\Documents\\web2py\\applications\\MatrimonialProject\\</div></td></tr><tr><td style="font-weight:bold;vertical-align:top;">function</td><td style="vertical-align:top;">:</td><td><div>index</div></td></tr><tr><td style="font-weight:bold;vertical-align:top;">global_settings</td><td style="vertical-align:top;">:</td><td><div><table><tr><td style="font-weight:bold;vertical-align:top;">app_folders</td><td style="vertical-align:top;">:</td><td><div>set([&#x27;C:\\\\Users\\\\Rishith Reddy\\\\Documents\\\\web2py\\\\applications\\\\MatrimonialProject\\\\&#x27;, &#x27;C:\\\\Users\\\\Rishith Reddy\\\\Documents\\\\web2py\\\\applications\\\\welcome\\\\&#x27;, &#x27;C:\\\\Users\\\\Rishith Reddy\\\\Documents\\\\web2py\\\\applications\\\\IMAGE_JOURNAL\\\\&#x27;, &#x27;C:\\\\Users\\\\Rishith Reddy\\\\Documents\\\\web2py\\\\applications\\\\admin\\\\&#x27;, &#x27;C:\\\\Users\\\\Rishith Reddy\\\\Documents\\\\web2py\\\\applications\\\\examples\\\\&#x27;])</div></td></tr><tr><td style="font-weight:bold;vertical-align:top;">applications_parent</td><td style="vertical-align:top;">:</td><td><div>C:\\Users\\Rishith Reddy\\Documents\\web2py</div></td></tr><tr><td style="font-weight:bold;vertical-align:top;">cmd_args</td><td style="vertical-align:top;">:</td><td><div><table></table></div></td></tr><tr><td style="font-weight:bold;vertical-align:top;">cmd_options</td><td style="vertical-align:top;">:</td><td><div>&lt;Values at 0x2a63da0: {&#x27;verbose&#x27;: False, &#x27;ip&#x27;: &#x27;127.0.0.1&#x27;, &#x27;debuglevel&#x27;: 30, &#x27;with_scheduler&#x27;: False, &#x27;ips&#x27;: [&#x27;fe80::9c54:224a:e725:5635%8&#x27;, &#x27;169.254.86.53&#x27;], &#x27;shutdown_timeout&#x27;: 5, &#x27;taskbar&#x27;: False, &#x27;with_coverage&#x27;: False, &#x27;scheduler_groups&#x27;: None, &#x27;port&#x27;: 8000, &#x27;maxthreads&#x27;: None, &#x27;softcron&#x27;: False, &#x27;server_name&#x27;: &#x27;Infinity&#x27;, &#x27;bpython&#x27;: False, &#x27;nogui&#x27;: False, &#x27;pid_filename&#x27;: &#x27;httpserver.pid&#x27;, &#x27;extcron&#x27;: False, &#x27;runcron&#x27;: False, &#x27;run_system_tests&#x27;: False, &#x27;test&#x27;: None, &#x27;folder&#x27;: &#x27;C:\\\\Users\\\\Rishith Reddy\\\\Documents\\\\web2py&#x27;, &#x27;config&#x27;: &#x27;&#x27;, &#x27;minthreads&#x27;: None, &#x27;shell&#x27;: None, &#x27;run&#x27;: &#x27;&#x27;, &#x27;log_filename&#x27;: &#x27;httpserver.log&#x27;, &#x27;profiler_dir&#x27;: None, &#x27;args&#x27;: [&#x27;&#x27;], &#x27;socket_timeout&#x27;: 5, &#x27;ssl_ca_certificate&#x27;: None, &#x27;scheduler&#x27;: None, &#x27;interfaces&#x27;: None, &#x27;ssl_private_key&#x27;: &#x27;&#x27;, &#x27;gae&#x27;: None, &#x27;password&#x27;: &#x27;&lt;ask&gt;&#x27;, &#x27;request_queue_size&#x27;: 5, &#x27;ssl_certificate&#x27;: &#x27;&#x27;, &#x27;cronjob&#x27;: False, &#x27;numthreads&#x27;: None, &#x27;quiet&#x27;: False, &#x27;import_models&#x27;: False, &#x27;timeout&#x27;: 10, &#x27;plain&#x27;: False, &#x27;nobanner&#x27;: False}&gt;</div></td></tr><tr><td style="font-weight:bold;vertical-align:top;">db_sessions</td><td style="vertical-align:top;">:</td><td><div>set([])</div></td></tr><tr><td style="font-weight:bold;vertical-align:top;">debugging</td><td style="vertical-align:top;">:</td><td><div>True</div></td></tr><tr><td style="font-weight:bold;vertical-align:top;">gluon_parent</td><td style="vertical-align:top;">:</td><td><div>C:\\Users\\Rishith Reddy\\Documents\\web2py</div></td></tr><tr><td style="font-weight:bold;vertical-align:top;">is_jython</td><td style="vertical-align:top;">:</td><td><div>False</div></td></tr><tr><td style="font-weight:bold;vertical-align:top;">is_pypy</td><td style="vertical-align:top;">:</td><td><div>False</div></td></tr><tr><td style="font-weight:bold;vertical-align:top;">is_source</td><td style="vertical-align:top;">:</td><td><div>True</div></td></tr><tr><td style="font-weight:bold;vertical-align:top;">local_hosts</td><td style="vertical-align:top;">:</td><td><div><table><tr><td><div>Infinity</div></td></tr><tr><td><div>2001:0:5ef5:79fd:20ac:140f:f5fd:c4ac</div></td></tr><tr><td><div>fe80::9c54:224a:e725:5635%8</div></td></tr><tr><td><div>::ffff:127.0.0.1</div></td></tr><tr><td><div>::1</div></td></tr><tr><td><div>fe80::20ac:140f:f5fd:c4ac%7</div></td></tr><tr><td><div>10.2.59.83</div></td></tr><tr><td><div>Infinity.iiit.ac.in</div></td></tr><tr><td><div>127.0.0.1</div></td></tr></table></div></td></tr><tr><td style="font-weight:bold;vertical-align:top;">web2py_version</td><td style="vertical-align:top;">:</td><td><div>2.9.12-stable+timestamp.2015.02.15.23.04.25</div></td></tr></table></div></td></tr><tr><td style="font-weight:bold;vertical-align:top;">is_https</td><td style="vertical-align:top;">:</td><td><div>False</div></td></tr><tr><td style="font-weight:bold;vertical-align:top;">is_local</td><td style="vertical-align:top;">:</td><td><div>True</div></td></tr><tr><td style="font-weight:bold;vertical-align:top;">is_restful</td><td style="vertical-align:top;">:</td><td><div>False</div></td></tr><tr><td style="font-weight:bold;vertical-align:top;">is_sheduler</td><td style="vertical-align:top;">:</td><td><div>None</div></td></tr><tr><td style="font-weight:bold;vertical-align:top;">is_shell</td><td style="vertical-align:top;">:</td><td><div>None</div></td></tr><tr><td style="font-weight:bold;vertical-align:top;">now</td><td style="vertical-align:top;">:</td><td><div>datetime.datetime(2015, 4, 8, 11, 3, 54, 893000)</div></td></tr><tr><td style="font-weight:bold;vertical-align:top;">raw_args</td><td style="vertical-align:top;">:</td><td><div></div></td></tr><tr><td style="font-weight:bold;vertical-align:top;">raw_extension</td><td style="vertical-align:top;">:</td><td><div>None</div></td></tr><tr><td style="font-weight:bold;vertical-align:top;">url</td><td style="vertical-align:top;">:</td><td><div>/MatrimonialProject/default/</div></td></tr><tr><td style="font-weight:bold;vertical-align:top;">utcnow</td><td style="vertical-align:top;">:</td><td><div>datetime.datetime(2015, 4, 8, 5, 33, 54, 893000)</div></td></tr><tr><td style="font-weight:bold;vertical-align:top;">uuid</td><td style="vertical-align:top;">:</td><td><div>MatrimonialProject/127.0.0.1.2015-04-08.11-03-54.eca9f8d9-e4aa-49ac-b5b1-4828d4c1871a</div></td></tr><tr><td style="font-weight:bold;vertical-align:top;">wsgi</td><td style="vertical-align:top;">:</td><td><div>&lt;gluon.main.LazyWSGI object at 0x07D12F10&gt;</div></td></tr></table></div>'
tRp62
sS'frames'
p63
(lp64
(dp65
S'file'
p66
S'C:\\Users\\Rishith Reddy\\Documents\\web2py\\gluon\\restricted.py'
p67
sS'dump'
p68
(dp69
S'environment'
p70
S"{'A': <class 'gluon.html.A'>, 'ANY_OF': <class 'gluon.validators.ANY_OF'>, 'ASSIGNJS': <function ASSIGNJS>, 'Auth': <class 'gluon.tools.Auth'>, 'B': <class 'gluon.html.B'>, 'BEAUTIFY': <class 'gluon.html.BEAUTIFY'>, 'BODY': <class 'gluon.html.BODY'>, 'BR': <class 'gluon.html.BR'>, 'BUTTON': <class 'gluon.html.BUTTON'>, 'CAT': <class 'gluon.html.CAT'>, ...}"
p71
sS'ccode'
p72
S'<code object <module> at 074CE890, file "C:\\User...ations\\MatrimonialProject\\models\\db.py", line 12>'
p73
ssS'lnum'
p74
I224
sS'lines'
p75
(dp76
I224
S'        exec ccode in environment'
p77
sI225
S'    except HTTP:'
p78
sI226
S'        raise'
p79
sI227
S'    except RestrictedError:'
p80
sI228
S'        # do not encapsulate (obfuscate) the original RestrictedError'
p81
sI219
S'    try:'
p82
sI220
S'        if isinstance(code, types.CodeType):'
p83
sI221
S'            ccode = code'
p84
sI222
S'        else:'
p85
sI223
S'            ccode = compile2(code, layer)'
p86
ssS'call'
p87
S"(code='# -*- coding: utf-8 -*-\\n\\n#######################...ble auditing\\n# auth.enable_record_versioning(db)\\n', environment={'A': <class 'gluon.html.A'>, 'ANY_OF': <class 'gluon.validators.ANY_OF'>, 'ASSIGNJS': <function ASSIGNJS>, 'Auth': <class 'gluon.tools.Auth'>, 'B': <class 'gluon.html.B'>, 'BEAUTIFY': <class 'gluon.html.BEAUTIFY'>, 'BODY': <class 'gluon.html.BODY'>, 'BR': <class 'gluon.html.BR'>, 'BUTTON': <class 'gluon.html.BUTTON'>, 'CAT': <class 'gluon.html.CAT'>, ...}, layer=r'C:\\Users\\Rishith Reddy\\Documents\\web2py\\applications\\MatrimonialProject\\models\\db.py')"
p88
sS'func'
p89
S'restricted'
p90
sa(dp91
g66
S'C:\\Users\\Rishith Reddy\\Documents\\web2py\\applications\\MatrimonialProject\\models\\db.py'
p92
sg68
(dp93
S'Field'
p94
S"<class 'pydal.objects.Field'>"
p95
ssg74
I64
sg75
(dp96
I64
S"                Field('minimum salary'))"
p97
sI65
S'service = Service()'
p98
sI66
S'plugins = PluginManager()'
p99
sI67
S''
sI68
S'## create all tables needed by auth if not custom tables'
p100
sI59
S''
sI60
S"db.define_table('find',"
p101
sI61
S"                Field('sex'),"
p102
sI62
S"                Field('minimum age'),"
p103
sI63
S"                Field('maximum age'),"
p104
ssg87
S'()'
p105
sg89
S'<module>'
p106
sa(dp107
g66
S'C:\\Users\\Rishith Reddy\\Documents\\web2py\\gluon\\packages\\dal\\pydal\\base.py'
p108
sg68
(dp109
S'fields'
p110
S'(<pydal.objects.Field object>, <pydal.objects.Field object>, <pydal.objects.Field object>, <pydal.objects.Field object>)'
p111
sS'self'
p112
S'<DAL uri="sqlite://storage.sqlite">'
p113
sS'args'
p114
g21
sS'tablename'
p115
S"'find'"
p116
sS'table'
p117
S'undefined'
p118
sS'self.lazy_define_table'
p119
S'<bound method DAL.lazy_define_table of <DAL uri="sqlite://storage.sqlite">>'
p120
ssg74
I812
sg75
(dp121
I807
S'                    % (tablename,invalid_args))'
p122
sI808
S'        if self._lazy_tables and not tablename in self._LAZY_TABLES:'
p123
sI809
S'            self._LAZY_TABLES[tablename] = (tablename,fields,args)'
p124
sI810
S'            table = None'
p125
sI811
S'        else:'
p126
sI812
S'            table = self.lazy_define_table(tablename,*fields,**args)'
p127
sI813
S'        if not tablename in self.tables:'
p128
sI814
S'            self.tables.append(tablename)'
p129
sI815
S'        return table'
p130
sI816
S''
ssg87
S'(self=<DAL uri="sqlite://storage.sqlite">, tablename=\'find\', *fields=(<pydal.objects.Field object>, <pydal.objects.Field object>, <pydal.objects.Field object>, <pydal.objects.Field object>), **args={})'
p131
sg89
S'define_table'
p132
sa(dp133
g66
S'C:\\Users\\Rishith Reddy\\Documents\\web2py\\gluon\\packages\\dal\\pydal\\base.py'
p134
sg68
(dp135
S'polymodel'
p136
S'None'
p137
ssg74
I849
sg75
(dp138
I844
S'            try:'
p139
sI845
S'                GLOBAL_LOCKER.acquire()'
p140
sI846
S'                self._lastsql = self._adapter.create_table('
p141
sI847
S'                    table,migrate=migrate,'
p142
sI848
S'                    fake_migrate=fake_migrate,'
p143
sI849
S'                    polymodel=polymodel)'
p144
sI850
S'            finally:'
p145
sI851
S'                GLOBAL_LOCKER.release()'
p146
sI852
S'        else:'
p147
sI853
S'            table._dbt = None'
p148
ssg87
S'(self=<DAL uri="sqlite://storage.sqlite">, tablename=\'find\', *fields=(<pydal.objects.Field object>, <pydal.objects.Field object>, <pydal.objects.Field object>, <pydal.objects.Field object>), **args={})'
p149
sg89
S'lazy_define_table'
p150
sa(dp151
g66
S'C:\\Users\\Rishith Reddy\\Documents\\web2py\\gluon\\packages\\dal\\pydal\\adapters\\base.py'
p152
sg68
(dp153
S'query'
p154
S"'CREATE TABLE find(\\n    id INTEGER PRIMARY KEY AU...um age CHAR(512),\\n    minimum salary CHAR(512)\\n);'"
p155
sS'self'
p156
S'<pydal.adapters.sqlite.SQLiteAdapter object>'
p157
sS'table'
p158
S'<Table find (id,sex,minimum age,maximum age,minimum salary)>'
p159
sS'self.create_sequence_and_triggers'
p160
S'<bound method SQLiteAdapter.create_sequence_and_... of <pydal.adapters.sqlite.SQLiteAdapter object>>'
p161
ssg74
I463
sg75
(dp162
I458
S'            if table._dbt:'
p163
sI459
S"                self.log('timestamp: %s\\n%s\\n'"
p164
sI460
S'                         % (datetime.datetime.today().isoformat(),'
p165
sI461
S'                            query), table)'
p166
sI462
S'            if not fake_migrate:'
p167
sI463
S'                self.create_sequence_and_triggers(query,table)'
p168
sI464
S'                table._db.commit()'
p169
sI465
S'                # Postgres geom fields are added now,'
p170
sI466
S'                # after the table has been created'
p171
sI467
S'                for query in postcreation_fields:'
p172
ssg87
S'(self=<pydal.adapters.sqlite.SQLiteAdapter object>, table=<Table find (id,sex,minimum age,maximum age,minimum salary)>, migrate=True, fake_migrate=False, polymodel=None)'
p173
sg89
S'create_table'
p174
sa(dp175
g66
S'C:\\Users\\Rishith Reddy\\Documents\\web2py\\gluon\\packages\\dal\\pydal\\adapters\\base.py'
p176
sg68
(dp177
S'query'
p178
S"'CREATE TABLE find(\\n    id INTEGER PRIMARY KEY AU...um age CHAR(512),\\n    minimum salary CHAR(512)\\n);'"
p179
sS'self'
p180
S'<pydal.adapters.sqlite.SQLiteAdapter object>'
p181
sS'self.execute'
p182
S'<bound method SQLiteAdapter.execute of <pydal.adapters.sqlite.SQLiteAdapter object>>'
p183
ssg74
I1299
sg75
(dp184
I1294
S''
sI1295
S'    def constraint_name(self, table, fieldname):'
p185
sI1296
S"        return '%s_%s__constraint' % (table,fieldname)"
p186
sI1297
S''
sI1298
S'    def create_sequence_and_triggers(self, query, table, **args):'
p187
sI1299
S'        self.execute(query)'
p188
sI1300
S''
sI1301
S''
sI1302
S'    def log_execute(self, *a, **b):'
p189
sI1303
S'        if not self.connection: raise ValueError(a[0])'
p190
ssg87
S"(self=<pydal.adapters.sqlite.SQLiteAdapter object>, query='CREATE TABLE find(\\n    id INTEGER PRIMARY KEY AU...um age CHAR(512),\\n    minimum salary CHAR(512)\\n);', table=<Table find (id,sex,minimum age,maximum age,minimum salary)>, **args={})"
p191
sg89
S'create_sequence_and_triggers'
p192
sa(dp193
g66
S'C:\\Users\\Rishith Reddy\\Documents\\web2py\\gluon\\packages\\dal\\pydal\\adapters\\base.py'
p194
sg68
(dp195
S'a'
S"('CREATE TABLE find(\\n    id INTEGER PRIMARY KEY AU...um age CHAR(512),\\n    minimum salary CHAR(512)\\n);',)"
p196
sS'self'
p197
S'<pydal.adapters.sqlite.SQLiteAdapter object>'
p198
sS'b'
g21
sS'self.log_execute'
p199
S'<bound method SQLiteAdapter.log_execute of <pydal.adapters.sqlite.SQLiteAdapter object>>'
p200
ssg74
I1318
sg75
(dp201
I1313
S'        self.db._timings.append((command,time.time()-t0))'
p202
sI1314
S'        del self.db._timings[:-TIMINGSSIZE]'
p203
sI1315
S'        return ret'
p204
sI1316
S''
sI1317
S'    def execute(self, *a, **b):'
p205
sI1318
S'        return self.log_execute(*a, **b)'
p206
sI1319
S''
sI1320
S'    def represent(self, obj, fieldtype):'
p207
sI1321
S'        field_is_type = fieldtype.startswith'
p208
sI1322
S'        if isinstance(obj, CALLABLETYPES):'
p209
ssg87
S"(self=<pydal.adapters.sqlite.SQLiteAdapter object>, *a=('CREATE TABLE find(\\n    id INTEGER PRIMARY KEY AU...um age CHAR(512),\\n    minimum salary CHAR(512)\\n);',), **b={})"
p210
sg89
S'execute'
p211
sa(dp212
g66
S'C:\\Users\\Rishith Reddy\\Documents\\web2py\\gluon\\packages\\dal\\pydal\\adapters\\base.py'
p213
sg68
(dp214
S'a'
S"('CREATE TABLE find(\\n    id INTEGER PRIMARY KEY AU...um age CHAR(512),\\n    minimum salary CHAR(512)\\n);',)"
p215
sS'b'
g21
sS'self'
p216
S'<pydal.adapters.sqlite.SQLiteAdapter object>'
p217
sS'ret'
p218
g118
sS'self.cursor'
p219
S'<sqlite3.Cursor object>'
p220
sS'command'
p221
S"'CREATE TABLE find(\\n    id INTEGER PRIMARY KEY AU...um age CHAR(512),\\n    minimum salary CHAR(512)\\n);'"
p222
sS'self.cursor.execute'
p223
S'<built-in method execute of sqlite3.Cursor object>'
p224
ssg74
I1312
sg75
(dp225
I1312
S'        ret = self.cursor.execute(command, *a[1:], **b)'
p226
sI1313
S'        self.db._timings.append((command,time.time()-t0))'
p227
sI1314
S'        del self.db._timings[:-TIMINGSSIZE]'
p228
sI1315
S'        return ret'
p229
sI1316
S''
sI1307
S'            command = self.filter_sql_command(command)'
p230
sI1308
S'        if self.db._debug:'
p231
sI1309
S"            self.db.logger.debug('SQL: %s' % command)"
p232
sI1310
S'        self.db._lastsql = command'
p233
sI1311
S'        t0 = time.time()'
p234
ssg87
S"(self=<pydal.adapters.sqlite.SQLiteAdapter object>, *a=('CREATE TABLE find(\\n    id INTEGER PRIMARY KEY AU...um age CHAR(512),\\n    minimum salary CHAR(512)\\n);',), **b={})"
p235
sg89
S'log_execute'
p236
sasS'pyver'
p237
S'Python 2.7.9: C:\\Users\\Rishith Reddy\\Documents\\web2py\\web2py.exe (prefix: )'
p238
sS'session'
p239
g61
(S's\x1a\x00\x00\x00<div><table></table></div>'
tRp240
sS'etype'
p241
S"<class 'sqlite3.OperationalError'>"
p242
sS'date'
p243
S'Wed Apr 08 11:03:54 2015'
p244
sS'response'
p245
g61
(S'sZ\x18\x00\x00<div><table><tr><td style="font-weight:bold;vertical-align:top;">body</td><td style="vertical-align:top;">:</td><td><div>&lt;cStringIO.StringO object at 0x07FAC580&gt;</div></td></tr><tr><td style="font-weight:bold;vertical-align:top;">cookies</td><td style="vertical-align:top;">:</td><td><div><table><tr><td style="font-weight:bold;vertical-align:top;">session_id_matrimonialproject</td><td style="vertical-align:top;">:</td><td><div>127.0.0.1-4a935539-bdf7-47ad-a124-af5b31199e36<table><tr><td style="font-weight:bold;vertical-align:top;">comment</td><td style="vertical-align:top;">:</td><td><div></div></td></tr><tr><td style="font-weight:bold;vertical-align:top;">domain</td><td style="vertical-align:top;">:</td><td><div></div></td></tr><tr><td style="font-weight:bold;vertical-align:top;">expires</td><td style="vertical-align:top;">:</td><td><div></div></td></tr><tr><td style="font-weight:bold;vertical-align:top;">httponly</td><td style="vertical-align:top;">:</td><td><div></div></td></tr><tr><td style="font-weight:bold;vertical-align:top;">max-age</td><td style="vertical-align:top;">:</td><td><div></div></td></tr><tr><td style="font-weight:bold;vertical-align:top;">path</td><td style="vertical-align:top;">:</td><td><div>/</div></td></tr><tr><td style="font-weight:bold;vertical-align:top;">secure</td><td style="vertical-align:top;">:</td><td><div></div></td></tr><tr><td style="font-weight:bold;vertical-align:top;">version</td><td style="vertical-align:top;">:</td><td><div></div></td></tr></table></div></td></tr></table></div></td></tr><tr><td style="font-weight:bold;vertical-align:top;">delimiters</td><td style="vertical-align:top;">:</td><td><div><table><tr><td><div>{{</div></td></tr><tr><td><div>}}</div></td></tr></table></div></td></tr><tr><td style="font-weight:bold;vertical-align:top;">files</td><td style="vertical-align:top;">:</td><td><div><table></table></div></td></tr><tr><td style="font-weight:bold;vertical-align:top;">flash</td><td style="vertical-align:top;">:</td><td><div></div></td></tr><tr><td style="font-weight:bold;vertical-align:top;">form_label_separator</td><td style="vertical-align:top;">:</td><td><div>: </div></td></tr><tr><td style="font-weight:bold;vertical-align:top;">formstyle</td><td style="vertical-align:top;">:</td><td><div>table3cols</div></td></tr><tr><td style="font-weight:bold;vertical-align:top;">generic_patterns</td><td style="vertical-align:top;">:</td><td><div><table><tr><td><div>*</div></td></tr></table></div></td></tr><tr><td style="font-weight:bold;vertical-align:top;">headers</td><td style="vertical-align:top;">:</td><td><div><table><tr><td style="font-weight:bold;vertical-align:top;">X-Powered-By</td><td style="vertical-align:top;">:</td><td><div>web2py</div></td></tr></table></div></td></tr><tr><td style="font-weight:bold;vertical-align:top;">menu</td><td style="vertical-align:top;">:</td><td><div><table></table></div></td></tr><tr><td style="font-weight:bold;vertical-align:top;">meta</td><td style="vertical-align:top;">:</td><td><div><table></table></div></td></tr><tr><td style="font-weight:bold;vertical-align:top;">models_to_run</td><td style="vertical-align:top;">:</td><td><div><table><tr><td><div>^\\w+\\.py$</div></td></tr><tr><td><div>^default/\\w+\\.py$</div></td></tr><tr><td><div>^default/index/\\w+\\.py$</div></td></tr></table></div></td></tr><tr><td style="font-weight:bold;vertical-align:top;">postprocessing</td><td style="vertical-align:top;">:</td><td><div><table></table></div></td></tr><tr><td style="font-weight:bold;vertical-align:top;">session_client</td><td style="vertical-align:top;">:</td><td><div>127.0.0.1</div></td></tr><tr><td style="font-weight:bold;vertical-align:top;">session_cookie_compression_level</td><td style="vertical-align:top;">:</td><td><div>None</div></td></tr><tr><td style="font-weight:bold;vertical-align:top;">session_cookie_expires</td><td style="vertical-align:top;">:</td><td><div>None</div></td></tr><tr><td style="font-weight:bold;vertical-align:top;">session_cookie_key</td><td style="vertical-align:top;">:</td><td><div>None</div></td></tr><tr><td style="font-weight:bold;vertical-align:top;">session_data_name</td><td style="vertical-align:top;">:</td><td><div>session_data_matrimonialproject</div></td></tr><tr><td style="font-weight:bold;vertical-align:top;">session_file</td><td style="vertical-align:top;">:</td><td><div>&lt;open file &#x27;C:\\\\Users\\\\Rishith Reddy\\\\Documents\\\\web2py\\\\applications\\\\MatrimonialProject\\\\sessions\\\\0fb\\\\190\\\\127.0.0.1-4a935539-bdf7-47ad-a124-af5b31199e36&#x27;, mode &#x27;rb+&#x27; at 0x078AB128&gt;</div></td></tr><tr><td style="font-weight:bold;vertical-align:top;">session_filename</td><td style="vertical-align:top;">:</td><td><div>C:\\Users\\Rishith Reddy\\Documents\\web2py\\applications\\MatrimonialProject\\sessions\\127.0.0.1-4a935539-bdf7-47ad-a124-af5b31199e36</div></td></tr><tr><td style="font-weight:bold;vertical-align:top;">session_hash</td><td style="vertical-align:top;">:</td><td><div>dd1d0e4d85b4aaff43094f5af0117346</div></td></tr><tr><td style="font-weight:bold;vertical-align:top;">session_id</td><td style="vertical-align:top;">:</td><td><div>127.0.0.1-4a935539-bdf7-47ad-a124-af5b31199e36</div></td></tr><tr><td style="font-weight:bold;vertical-align:top;">session_id_name</td><td style="vertical-align:top;">:</td><td><div>session_id_matrimonialproject</div></td></tr><tr><td style="font-weight:bold;vertical-align:top;">session_locked</td><td style="vertical-align:top;">:</td><td><div>True</div></td></tr><tr><td style="font-weight:bold;vertical-align:top;">session_masterapp</td><td style="vertical-align:top;">:</td><td><div>MatrimonialProject</div></td></tr><tr><td style="font-weight:bold;vertical-align:top;">session_new</td><td style="vertical-align:top;">:</td><td><div>False</div></td></tr><tr><td style="font-weight:bold;vertical-align:top;">session_storage_type</td><td style="vertical-align:top;">:</td><td><div>file</div></td></tr><tr><td style="font-weight:bold;vertical-align:top;">status</td><td style="vertical-align:top;">:</td><td><div>200</div></td></tr><tr><td style="font-weight:bold;vertical-align:top;">view</td><td style="vertical-align:top;">:</td><td><div>default/index.html</div></td></tr></table></div>'
tRp246
sS'locals'
p247
(dp248
S'a'
S"('CREATE TABLE find(\\n    id INTEGER PRIMARY KEY AU...um age CHAR(512),\\n    minimum salary CHAR(512)\\n);',)"
p249
sS'self'
p250
S'<pydal.adapters.sqlite.SQLiteAdapter object>'
p251
sS'b'
g21
sS'command'
p252
S"'CREATE TABLE find(\\n    id INTEGER PRIMARY KEY AU...um age CHAR(512),\\n    minimum salary CHAR(512)\\n);'"
p253
sS't0'
p254
S'1428471234.949'
p255
sssS'traceback'
p256
S'Traceback (most recent call last):\n  File "C:\\Users\\Rishith Reddy\\Documents\\web2py\\gluon\\restricted.py", line 224, in restricted\n    exec ccode in environment\n  File "C:\\Users\\Rishith Reddy\\Documents\\web2py\\applications\\MatrimonialProject\\models\\db.py", line 64, in <module>\n    Field(\'minimum salary\'))\n  File "C:\\Users\\Rishith Reddy\\Documents\\web2py\\gluon\\packages\\dal\\pydal\\base.py", line 812, in define_table\n    table = self.lazy_define_table(tablename,*fields,**args)\n  File "C:\\Users\\Rishith Reddy\\Documents\\web2py\\gluon\\packages\\dal\\pydal\\base.py", line 849, in lazy_define_table\n    polymodel=polymodel)\n  File "C:\\Users\\Rishith Reddy\\Documents\\web2py\\gluon\\packages\\dal\\pydal\\adapters\\base.py", line 463, in create_table\n    self.create_sequence_and_triggers(query,table)\n  File "C:\\Users\\Rishith Reddy\\Documents\\web2py\\gluon\\packages\\dal\\pydal\\adapters\\base.py", line 1299, in create_sequence_and_triggers\n    self.execute(query)\n  File "C:\\Users\\Rishith Reddy\\Documents\\web2py\\gluon\\packages\\dal\\pydal\\adapters\\base.py", line 1318, in execute\n    return self.log_execute(*a, **b)\n  File "C:\\Users\\Rishith Reddy\\Documents\\web2py\\gluon\\packages\\dal\\pydal\\adapters\\base.py", line 1312, in log_execute\n    ret = self.cursor.execute(command, *a[1:], **b)\nOperationalError: duplicate column name: minimum\n'
p257
s.