(dp1
S'output'
p2
S"<type 'exceptions.RuntimeError'> Cannot compare auth_user.age > None"
p3
sS'layer'
p4
S'C:\\Users\\Rishith Reddy\\Documents\\web2py\\applications\\MatrimonialProject\\controllers/default.py'
p5
sS'code'
p6
S'# -*- coding: utf-8 -*-\n# this file is released under public domain and you can use without limitations\n\n#########################################################################\n## This is a sample controller\n## - index is the default action of any application\n## - user is required for authentication and authorization\n## - download is for downloading files uploaded in the db (does streaming)\n## - api is an example of Hypermedia API support and access control\n#########################################################################\n\ndef index():\n    """\n    example action using the internationalization operator T and flash\n    rendered by views/default/index.html or views/generic.html\n\n    if you need a simple wiki simply replace the two lines below with:\n    return auth.wiki()\n    """\n    response.flash = T("Welcome to web2py!")\n    form = SQLFORM(db.users)\n    if form.process().accepted:\n        response.flash("Registered!")\n    return dict(message=T(\'Hello World\'), form=form)\n\ndef search():\n    form = crud.create(db.find)\n    if(form.process().accepted):\n        redirect(URL(\'default\',\'result\'))\n    return dict(form=form)\n\ndef result():\n    q1 = db.auth_user.sex==request.vars[\'0\']\n    min = db.auth_user.age > request.vars[\'1\']\n    max = db.auth_user.age < request.vars[\'2\']\n    sal = db.auth_user.salary > request.vars[\'3\']\n    rows=db(q1 & min & max & sal).select()\n    \ndef view_users():\n    dic = db(db.auth_user).select()\n    return dict(dic = dic)\n\ndef view_user():\n    user = db(db.auth_user.last_name == request.args[0]).select()\n    return dict(user = user)\n\ndef user():\n    """\n    exposes:\n    http://..../[app]/default/user/login\n    http://..../[app]/default/user/logout\n    http://..../[app]/default/user/register\n    http://..../[app]/default/user/profile\n    http://..../[app]/default/user/retrieve_password\n    http://..../[app]/default/user/change_password\n    http://..../[app]/default/user/manage_users (requires membership in\n    use @auth.requires_login()\n        @auth.requires_membership(\'group name\')\n        @auth.requires_permission(\'read\',\'table name\',record_id)\n    to decorate functions that need access control\n    """\n    return dict(form=auth())\n\n\n@cache.action()\ndef download():\n    """\n    allows downloading of uploaded files\n    http://..../[app]/default/download/[filename]\n    """\n    return response.download(request, db)\n\n\ndef call():\n    """\n    exposes services. for example:\n    http://..../[app]/default/call/jsonrpc\n    decorate with @services.jsonrpc the functions to expose\n    supports xml, json, xmlrpc, jsonrpc, amfrpc, rss, csv\n    """\n    return service()\n\ndef register():\n    form = SQLFORM(db.users);\n    return dict(form = form)\n\n@auth.requires_login() \ndef api():\n    """\n    this is example of API with access control\n    WEB2PY provides Hypermedia API (Collection+JSON) Experimental\n    """\n    from gluon.contrib.hypermedia import Collection\n    rules = {\n        \'<tablename>\': {\'GET\':{},\'POST\':{},\'PUT\':{},\'DELETE\':{}},\n        }\n    return Collection(db).process(request,response,rules)\n\nresponse._vars=response._caller(result)\n'
p7
sS'snapshot'
p8
(dp9
sS'traceback'
p10
S'Traceback (most recent call last):\n  File "C:\\Users\\Rishith Reddy\\Documents\\web2py\\gluon\\restricted.py", line 224, in restricted\n    exec ccode in environment\n  File "C:\\Users\\Rishith Reddy\\Documents\\web2py\\applications\\MatrimonialProject\\controllers/default.py", line 99, in <module>\n  File "C:\\Users\\Rishith Reddy\\Documents\\web2py\\gluon\\globals.py", line 393, in <lambda>\n    self._caller = lambda f: f()\n  File "C:\\Users\\Rishith Reddy\\Documents\\web2py\\applications\\MatrimonialProject\\controllers/default.py", line 37, in result\n    rows=db(q1 & min & max & sal).select()\n  File "C:\\Users\\Rishith Reddy\\Documents\\web2py\\gluon\\packages\\dal\\pydal\\objects.py", line 2076, in select\n    return adapter.select(self.query,fields,attributes)\n  File "C:\\Users\\Rishith Reddy\\Documents\\web2py\\gluon\\packages\\dal\\pydal\\adapters\\sqlite.py", line 125, in select\n    return super(SQLiteAdapter, self).select(query, fields, attributes)\n  File "C:\\Users\\Rishith Reddy\\Documents\\web2py\\gluon\\packages\\dal\\pydal\\adapters\\base.py", line 1218, in select\n    sql = self._select(query, fields, attributes)\n  File "C:\\Users\\Rishith Reddy\\Documents\\web2py\\gluon\\packages\\dal\\pydal\\adapters\\base.py", line 1116, in _select\n    sql_w = \' WHERE \' + self.expand(query) if query else \'\'\n  File "C:\\Users\\Rishith Reddy\\Documents\\web2py\\gluon\\packages\\dal\\pydal\\adapters\\base.py", line 901, in expand\n    out = op(first, second, **optional_args)\n  File "C:\\Users\\Rishith Reddy\\Documents\\web2py\\gluon\\packages\\dal\\pydal\\adapters\\base.py", line 740, in AND\n    return \'(%s AND %s)\' % (self.expand(first), self.expand(second))\n  File "C:\\Users\\Rishith Reddy\\Documents\\web2py\\gluon\\packages\\dal\\pydal\\adapters\\base.py", line 901, in expand\n    out = op(first, second, **optional_args)\n  File "C:\\Users\\Rishith Reddy\\Documents\\web2py\\gluon\\packages\\dal\\pydal\\adapters\\base.py", line 740, in AND\n    return \'(%s AND %s)\' % (self.expand(first), self.expand(second))\n  File "C:\\Users\\Rishith Reddy\\Documents\\web2py\\gluon\\packages\\dal\\pydal\\adapters\\base.py", line 901, in expand\n    out = op(first, second, **optional_args)\n  File "C:\\Users\\Rishith Reddy\\Documents\\web2py\\gluon\\packages\\dal\\pydal\\adapters\\base.py", line 740, in AND\n    return \'(%s AND %s)\' % (self.expand(first), self.expand(second))\n  File "C:\\Users\\Rishith Reddy\\Documents\\web2py\\gluon\\packages\\dal\\pydal\\adapters\\base.py", line 903, in expand\n    out = op(first,**optional_args)\n  File "C:\\Users\\Rishith Reddy\\Documents\\web2py\\gluon\\packages\\dal\\pydal\\adapters\\base.py", line 820, in GT\n    raise RuntimeError("Cannot compare %s > None" % first)\nRuntimeError: Cannot compare auth_user.age > None\n'
p11
s.